; Function Attrs: nounwind uwtable
define range(i32 -22, 1) i32 @IDASetMaxStep(ptr noundef %0, double noundef %1) local_unnamed_addr #0 {
  %3 = icmp eq ptr %0, null
  br i1 %3, label %4, label %5

4:                                                ; preds = %2
  tail call void (ptr, i32, i32, ptr, ptr, ptr, ...) @IDAProcessError(ptr noundef null, i32 noundef -20, i32 noundef 297, ptr noundef nonnull @__func__.IDASetMaxStep, ptr noundef nonnull @.str, ptr noundef nonnull @.str.1) #9
  br label %15

5:                                                ; preds = %2
  %6 = fcmp olt double %1, 0.000000e+00
  br i1 %6, label %7, label %8

7:                                                ; preds = %5
  tail call void (ptr, i32, i32, ptr, ptr, ptr, ...) @IDAProcessError(ptr noundef nonnull %0, i32 noundef -22, i32 noundef 305, ptr noundef nonnull @__func__.IDASetMaxStep, ptr noundef nonnull @.str, ptr noundef nonnull @.str.4) #9
  br label %15

8:                                                ; preds = %5
  %9 = fcmp oeq double %1, 0.000000e+00
  br i1 %9, label %10, label %12

10:                                               ; preds = %8
  %11 = getelementptr inbounds nuw i8, ptr %0, i64 1392
  store double 0.000000e+00, ptr %11, align 8
  br label %15

12:                                               ; preds = %8
  %13 = fdiv double 1.000000e+00, %1
  %14 = getelementptr inbounds nuw i8, ptr %0, i64 1392
  store double %13, ptr %14, align 8
  br label %15

15:                                               ; preds = %12, %10, %7, %4
  %.0 = phi i32 [ -20, %4 ], [ -22, %7 ], [ 0, %10 ], [ 0, %12 ]
  ret i32 %.0
}